; Function Attrs: mustprogress uwtable
define void @_ZN2cv4gapi4s11n9serializeERNS1_8IOStreamERKSt6vectorINS_11GCompileArgESaIS5_EE(ptr noundef nonnull align 8 dereferenceable(8) %0, ptr noundef nonnull readonly align 8 captures(none) dereferenceable(24) %1) local_unnamed_addr #3 {
  %3 = getelementptr inbounds nuw i8, ptr %1, i64 8
  %4 = load ptr, ptr %3, align 8, !tbaa !653
  %5 = load ptr, ptr %1, align 8, !tbaa !656
  %6 = ptrtoint ptr %4 to i64
  %7 = ptrtoint ptr %5 to i64
  %8 = sub i64 %6, %7
  %9 = sdiv exact i64 %8, 72
  %10 = trunc i64 %9 to i32
  %11 = load ptr, ptr %0, align 8, !tbaa !8
  %12 = getelementptr inbounds nuw i8, ptr %11, i64 64
  %13 = load ptr, ptr %12, align 8
  %14 = tail call noundef nonnull align 8 dereferenceable(8) ptr %13(ptr noundef nonnull align 8 dereferenceable(8) %0, i32 noundef %10)
  %15 = load ptr, ptr %1, align 8, !tbaa !657
  %16 = load ptr, ptr %3, align 8, !tbaa !657
  %.not11.i = icmp eq ptr %15, %16
  br i1 %.not11.i, label %_ZN2cv4gapi4s11nlsINS_11GCompileArgEEERNS1_8IOStreamES5_RKSt6vectorIT_SaIS7_EE.exit, label %.lr.ph.i

.lr.ph.i:                                         ; preds = %2, %.lr.ph.i
  %.sroa.08.012.i = phi ptr [ %18, %.lr.ph.i ], [ %15, %2 ]
  %17 = tail call noundef nonnull align 8 dereferenceable(8) ptr @_ZN2cv4gapi4s11nlsERNS1_8IOStreamERKNS_11GCompileArgE(ptr noundef nonnull align 8 dereferenceable(8) %0, ptr noundef nonnull align 8 dereferenceable(72) %.sroa.08.012.i)
  %18 = getelementptr inbounds nuw i8, ptr %.sroa.08.012.i, i64 72
  %.not.i = icmp eq ptr %18, %16
  br i1 %.not.i, label %_ZN2cv4gapi4s11nlsINS_11GCompileArgEEERNS1_8IOStreamES5_RKSt6vectorIT_SaIS7_EE.exit, label %.lr.ph.i

_ZN2cv4gapi4s11nlsINS_11GCompileArgEEERNS1_8IOStreamES5_RKSt6vectorIT_SaIS7_EE.exit: ; preds = %.lr.ph.i, %2
  ret void
}